target datalayout = "e-m:e-p270:32:32-p271:32:32-p272:64:64-i64:64-i128:128-f80:128-n8:16:32:64-S128"
target triple = "x86_64-pc-linux-gnu"

%"class.std::shared_ptr" = type { %"class.std::__shared_ptr" }
%"class.std::__shared_ptr" = type { ptr, %"class.std::__shared_count" }
%"class.std::__shared_count" = type { ptr }
%"class.std::vector.9" = type { %"struct.std::_Vector_base.10" }
%"struct.std::_Vector_base.10" = type { %"struct.std::_Vector_base<open_spiel::checkers::CellState, std::allocator<open_spiel::checkers::CellState>>::_Vector_impl" }
%"struct.std::_Vector_base<open_spiel::checkers::CellState, std::allocator<open_spiel::checkers::CellState>>::_Vector_impl" = type { %"struct.std::_Vector_base<open_spiel::checkers::CellState, std::allocator<open_spiel::checkers::CellState>>::_Vector_impl_data" }
%"struct.std::_Vector_base<open_spiel::checkers::CellState, std::allocator<open_spiel::checkers::CellState>>::_Vector_impl_data" = type { ptr, ptr, ptr }
%"class.open_spiel::checkers::CheckersState" = type { %"class.open_spiel::State.base", i32, i32, i32, i32, i32, i32, %"class.std::vector.9", %"class.std::vector.14" }
%"class.open_spiel::State.base" = type <{ ptr, %"class.std::shared_ptr", i32, i32, %"class.std::vector", i32 }>
%"class.std::vector" = type { %"struct.std::_Vector_base" }
%"struct.std::_Vector_base" = type { %"struct.std::_Vector_base<open_spiel::State::PlayerAction, std::allocator<open_spiel::State::PlayerAction>>::_Vector_impl" }
%"struct.std::_Vector_base<open_spiel::State::PlayerAction, std::allocator<open_spiel::State::PlayerAction>>::_Vector_impl" = type { %"struct.std::_Vector_base<open_spiel::State::PlayerAction, std::allocator<open_spiel::State::PlayerAction>>::_Vector_impl_data" }
%"struct.std::_Vector_base<open_spiel::State::PlayerAction, std::allocator<open_spiel::State::PlayerAction>>::_Vector_impl_data" = type { ptr, ptr, ptr }
%"class.std::vector.14" = type { %"struct.std::_Vector_base.15" }
%"struct.std::_Vector_base.15" = type { %"struct.std::_Vector_base<open_spiel::checkers::TurnHistoryInfo, std::allocator<open_spiel::checkers::TurnHistoryInfo>>::_Vector_impl" }
%"struct.std::_Vector_base<open_spiel::checkers::TurnHistoryInfo, std::allocator<open_spiel::checkers::TurnHistoryInfo>>::_Vector_impl" = type { %"struct.std::_Vector_base<open_spiel::checkers::TurnHistoryInfo, std::allocator<open_spiel::checkers::TurnHistoryInfo>>::_Vector_impl_data" }
%"struct.std::_Vector_base<open_spiel::checkers::TurnHistoryInfo, std::allocator<open_spiel::checkers::TurnHistoryInfo>>::_Vector_impl_data" = type { ptr, ptr, ptr }

; Function Attrs: mustprogress nounwind uwtable
define noundef zeroext i1 @_ZNK10open_spiel8checkers13CheckersState8InBoundsEii(ptr noundef nonnull align 8 dereferenceable(136) %0, i32 noundef %1, i32 noundef %2) #5 align 2 {
  %4 = alloca ptr, align 8
  %5 = alloca i32, align 4
  %6 = alloca i32, align 4
  store ptr %0, ptr %4, align 8
  store i32 %1, ptr %5, align 4
  store i32 %2, ptr %6, align 4
  %7 = load ptr, ptr %4, align 8
  %8 = load i32, ptr %5, align 4
  %9 = icmp sge i32 %8, 0
  br i1 %9, label %10, label %23

10:                                               ; preds = %3
  %11 = load i32, ptr %5, align 4
  %12 = getelementptr inbounds nuw %"class.open_spiel::checkers::CheckersState", ptr %7, i32 0, i32 4
  %13 = load i32, ptr %12, align 8
  %14 = icmp slt i32 %11, %13
  br i1 %14, label %15, label %23

15:                                               ; preds = %10
  %16 = load i32, ptr %6, align 4
  %17 = icmp sge i32 %16, 0
  br i1 %17, label %18, label %23

18:                                               ; preds = %15
  %19 = load i32, ptr %6, align 4
  %20 = getelementptr inbounds nuw %"class.open_spiel::checkers::CheckersState", ptr %7, i32 0, i32 5
  %21 = load i32, ptr %20, align 4
  %22 = icmp slt i32 %19, %21
  br label %23

23:                                               ; preds = %18, %15, %10, %3
  %24 = phi i1 [ false, %15 ], [ false, %10 ], [ false, %3 ], [ %22, %18 ]
  ret i1 %24
}