; Function Attrs: mustprogress nofree norecurse nosync nounwind willreturn memory(argmem: read) uwtable
define noundef zeroext i1 @_ZNK10open_spiel8checkers13CheckersState8InBoundsEii(ptr nocapture noundef nonnull readonly align 8 dereferenceable(136) %0, i32 noundef %1, i32 noundef %2) local_unnamed_addr #6 align 2 {
  %4 = icmp sgt i32 %1, -1
  br i1 %4, label %5, label %14

5:                                                ; preds = %3
  %6 = getelementptr inbounds nuw i8, ptr %0, i64 72
  %7 = load i32, ptr %6, align 8
  %8 = icmp slt i32 %1, %7
  %9 = icmp sgt i32 %2, -1
  %or.cond = and i1 %9, %8
  br i1 %or.cond, label %10, label %14

10:                                               ; preds = %5
  %11 = getelementptr inbounds nuw i8, ptr %0, i64 76
  %12 = load i32, ptr %11, align 4
  %13 = icmp slt i32 %2, %12
  br label %14

14:                                               ; preds = %10, %5, %3
  %15 = phi i1 [ false, %5 ], [ false, %3 ], [ %13, %10 ]
  ret i1 %15
}